target datalayout = "e-m:e-p270:32:32-p271:32:32-p272:64:64-i64:64-i128:128-f80:128-n8:16:32:64-S128"
target triple = "x86_64-pc-linux-gnu"

%struct._zend_array = type { %struct._zend_refcounted_h, %union.anon.17, i32, %union.anon.19, i32, i32, i32, i32, i64, ptr }
%struct._zend_refcounted_h = type { i32, %union.anon.16 }
%union.anon.16 = type { i32 }
%union.anon.17 = type { i32 }
%union.anon.19 = type { ptr }
%struct._zend_stack = type { i32, i32, i32, ptr }
%struct._zend_executor_globals = type { %struct._zval_struct, %struct._zval_struct, [32 x ptr], ptr, ptr, %struct._zend_array, %struct._zend_array, ptr, i32, i32, ptr, ptr, ptr, ptr, ptr, ptr, i64, ptr, ptr, i32, i32, i64, i32, i32, i32, i8, i8, %struct.zend_atomic_bool_s, %struct.zend_atomic_bool_s, ptr, i64, ptr, ptr, %struct._zend_array, %struct._zend_array, i32, i8, %struct._zval_struct, %struct._zval_struct, %struct._zend_stack, %struct._zend_stack, %struct._zend_stack, ptr, i32, i32, i64, ptr, ptr, ptr, %struct._zend_objects_store, ptr, ptr, ptr, [3 x %struct._zend_op], ptr, i8, i8, i64, i32, i32, ptr, [16 x %struct._HashTableIterator], ptr, %union._zend_function, %struct._zend_op, %struct._zend_array, i64, %struct.zend_get_gc_buffer, ptr, ptr, ptr, i64, i8, i32, ptr, ptr, i64, %struct._zend_call_stack, i64, i64, [6 x ptr] }
%struct.zend_atomic_bool_s = type { i8 }
%struct._zval_struct = type { %union._zend_value, %union.anon.21, %union.anon.24 }
%union._zend_value = type { i64 }
%union.anon.21 = type { i32 }
%union.anon.24 = type { i32 }
%struct._zend_objects_store = type { ptr, i32, i32, i32 }
%struct._HashTableIterator = type { ptr, i32, i32 }
%union._zend_function = type { %struct._zend_op_array }
%struct._zend_op_array = type { i8, [3 x i8], i32, ptr, ptr, ptr, i32, i32, ptr, ptr, ptr, ptr, i32, i32, i32, i32, ptr, ptr, ptr, ptr, ptr, i32, i32, ptr, ptr, ptr, i32, i32, i32, i32, ptr, ptr, [6 x ptr] }
%struct._zend_op = type { ptr, %union._znode_op, %union._znode_op, %union._znode_op, i32, i32, i8, i8, i8, i8 }
%union._znode_op = type { i32 }
%struct.zend_get_gc_buffer = type { ptr, ptr, ptr }
%struct._zend_call_stack = type { ptr, i64 }
%struct._zend_execute_data = type { ptr, ptr, ptr, ptr, %struct._zval_struct, ptr, ptr, ptr, ptr }
%struct.anon.25 = type { i8, [3 x i8], i32, ptr, ptr, ptr, i32, i32, ptr, ptr, ptr, ptr, i32 }
%struct._zend_refcounted = type { %struct._zend_refcounted_h }
%struct.zend_type = type { ptr, i32 }
%struct._zend_property_info = type { i32, i32, ptr, ptr, ptr, ptr, %struct.zend_type }
%struct._zend_reference = type { %struct._zend_refcounted_h, %struct._zval_struct, %union.zend_property_info_source_list }
%union.zend_property_info_source_list = type { ptr }
%struct.zend_property_info_list = type { i64, i64, [1 x ptr] }

@executor_globals = external global %struct._zend_executor_globals, align 8

; Function Attrs: nounwind uwtable
define internal ptr @zend_jit_get_prop_not_accepting_double(ptr noundef %0) #0 {
  %2 = alloca ptr, align 8
  %3 = alloca ptr, align 8
  %4 = alloca ptr, align 8
  %5 = alloca ptr, align 8
  %6 = alloca ptr, align 8
  %7 = alloca ptr, align 8
  %8 = alloca ptr, align 8
  store ptr %0, ptr %3, align 8
  br label %9

9:                                                ; preds = %1
  %10 = load ptr, ptr %3, align 8
  %11 = getelementptr inbounds %struct._zend_reference, ptr %10, i32 0, i32 2
  store ptr %11, ptr %5, align 8
  %12 = load ptr, ptr %5, align 8
  %13 = load ptr, ptr %12, align 8
  %14 = icmp ne ptr %13, null
  br i1 %14, label %15, label %60

15:                                               ; preds = %9
  %16 = load ptr, ptr %5, align 8
  %17 = load i64, ptr %16, align 8
  %18 = and i64 %17, 1
  %19 = icmp ne i64 %18, 0
  br i1 %19, label %20, label %35

20:                                               ; preds = %15
  %21 = load ptr, ptr %5, align 8
  %22 = load i64, ptr %21, align 8
  %23 = and i64 %22, -2
  %24 = inttoptr i64 %23 to ptr
  store ptr %24, ptr %8, align 8
  %25 = load ptr, ptr %8, align 8
  %26 = getelementptr inbounds %struct.zend_property_info_list, ptr %25, i32 0, i32 2
  %27 = getelementptr inbounds [1 x ptr], ptr %26, i64 0, i64 0
  store ptr %27, ptr %6, align 8
  %28 = load ptr, ptr %8, align 8
  %29 = getelementptr inbounds %struct.zend_property_info_list, ptr %28, i32 0, i32 2
  %30 = getelementptr inbounds [1 x ptr], ptr %29, i64 0, i64 0
  %31 = load ptr, ptr %8, align 8
  %32 = getelementptr inbounds %struct.zend_property_info_list, ptr %31, i32 0, i32 0
  %33 = load i64, ptr %32, align 8
  %34 = getelementptr inbounds ptr, ptr %30, i64 %33
  store ptr %34, ptr %7, align 8
  br label %39

35:                                               ; preds = %15
  %36 = load ptr, ptr %5, align 8
  store ptr %36, ptr %6, align 8
  %37 = load ptr, ptr %6, align 8
  %38 = getelementptr inbounds ptr, ptr %37, i64 1
  store ptr %38, ptr %7, align 8
  br label %39

39:                                               ; preds = %35, %20
  br label %40

40:                                               ; preds = %56, %39
  %41 = load ptr, ptr %6, align 8
  %42 = load ptr, ptr %7, align 8
  %43 = icmp ult ptr %41, %42
  br i1 %43, label %44, label %59

44:                                               ; preds = %40
  %45 = load ptr, ptr %6, align 8
  %46 = load ptr, ptr %45, align 8
  store ptr %46, ptr %4, align 8
  %47 = load ptr, ptr %4, align 8
  %48 = getelementptr inbounds %struct._zend_property_info, ptr %47, i32 0, i32 6
  %49 = getelementptr inbounds %struct.zend_type, ptr %48, i32 0, i32 1
  %50 = load i32, ptr %49, align 8
  %51 = and i32 %50, 32
  %52 = icmp ne i32 %51, 0
  br i1 %52, label %55, label %53

53:                                               ; preds = %44
  %54 = load ptr, ptr %4, align 8
  store ptr %54, ptr %2, align 8
  br label %62

55:                                               ; preds = %44
  br label %56

56:                                               ; preds = %55
  %57 = load ptr, ptr %6, align 8
  %58 = getelementptr inbounds ptr, ptr %57, i32 1
  store ptr %58, ptr %6, align 8
  br label %40

59:                                               ; preds = %40
  br label %60

60:                                               ; preds = %59, %9
  br label %61

61:                                               ; preds = %60
  store ptr null, ptr %2, align 8
  br label %62

62:                                               ; preds = %61, %53
  %63 = load ptr, ptr %2, align 8
  ret ptr %63
}

; Function Attrs: nounwind uwtable
define internal void @zend_jit_pre_dec_typed_ref(ptr noundef %0, ptr noundef %1) #0 {
  %3 = alloca ptr, align 8
  %4 = alloca ptr, align 8
  %5 = alloca ptr, align 8
  %6 = alloca ptr, align 8
  %7 = alloca ptr, align 8
  %8 = alloca ptr, align 8
  %9 = alloca ptr, align 8
  %10 = alloca %struct._zval_struct, align 8
  %11 = alloca ptr, align 8
  %12 = alloca ptr, align 8
  %13 = alloca ptr, align 8
  %14 = alloca i32, align 4
  %15 = alloca ptr, align 8
  %16 = alloca ptr, align 8
  %17 = alloca ptr, align 8
  %18 = alloca ptr, align 8
  %19 = alloca ptr, align 8
  %20 = alloca i32, align 4
  %21 = alloca ptr, align 8
  %22 = alloca ptr, align 8
  %23 = alloca ptr, align 8
  %24 = alloca i32, align 4
  store ptr %0, ptr %7, align 8
  store ptr %1, ptr %8, align 8
  %25 = load ptr, ptr %7, align 8
  %26 = getelementptr inbounds %struct._zend_reference, ptr %25, i32 0, i32 1
  store ptr %26, ptr %9, align 8
  br label %27

27:                                               ; preds = %2
  store ptr %10, ptr %11, align 8
  %28 = load ptr, ptr %9, align 8
  store ptr %28, ptr %12, align 8
  %29 = load ptr, ptr %12, align 8
  %30 = getelementptr inbounds %struct._zval_struct, ptr %29, i32 0, i32 0
  %31 = load ptr, ptr %30, align 8
  store ptr %31, ptr %13, align 8
  %32 = load ptr, ptr %12, align 8
  %33 = getelementptr inbounds %struct._zval_struct, ptr %32, i32 0, i32 1
  %34 = load i32, ptr %33, align 8
  store i32 %34, ptr %14, align 4
  br label %35

35:                                               ; preds = %27
  %36 = load ptr, ptr %13, align 8
  %37 = load ptr, ptr %11, align 8
  %38 = getelementptr inbounds %struct._zval_struct, ptr %37, i32 0, i32 0
  store ptr %36, ptr %38, align 8
  %39 = load i32, ptr %14, align 4
  %40 = load ptr, ptr %11, align 8
  %41 = getelementptr inbounds %struct._zval_struct, ptr %40, i32 0, i32 1
  store i32 %39, ptr %41, align 8
  br label %42

42:                                               ; preds = %35
  %43 = load i32, ptr %14, align 4
  %44 = and i32 %43, 65280
  %45 = icmp ne i32 %44, 0
  br i1 %45, label %46, label %52

46:                                               ; preds = %42
  %47 = load ptr, ptr %13, align 8
  %48 = getelementptr inbounds %struct._zend_refcounted, ptr %47, i32 0, i32 0
  store ptr %48, ptr %3, align 8
  %49 = load ptr, ptr %3, align 8
  %50 = load i32, ptr %49, align 4
  %51 = add i32 %50, 1
  store i32 %51, ptr %49, align 4
  br label %52

52:                                               ; preds = %46, %42
  br label %53

53:                                               ; preds = %52
  %54 = load ptr, ptr %9, align 8
  %55 = call i32 @decrement_function(ptr noundef %54)
  %56 = load ptr, ptr %9, align 8
  store ptr %56, ptr %5, align 8
  %57 = load ptr, ptr %5, align 8
  %58 = getelementptr inbounds %struct._zval_struct, ptr %57, i32 0, i32 1
  %59 = load i8, ptr %58, align 8
  %60 = zext i8 %59 to i32
  %61 = icmp eq i32 %60, 5
  %62 = xor i1 %61, true
  %63 = xor i1 %62, true
  %64 = zext i1 %63 to i32
  %65 = sext i32 %64 to i64
  %66 = icmp ne i64 %65, 0
  br i1 %66, label %67, label %94

67:                                               ; preds = %53
  store ptr %10, ptr %6, align 8
  %68 = load ptr, ptr %6, align 8
  %69 = getelementptr inbounds %struct._zval_struct, ptr %68, i32 0, i32 1
  %70 = load i8, ptr %69, align 8
  %71 = zext i8 %70 to i32
  %72 = icmp eq i32 %71, 4
  br i1 %72, label %73, label %94

73:                                               ; preds = %67
  %74 = load ptr, ptr %7, align 8
  %75 = call ptr @zend_jit_get_prop_not_accepting_double(ptr noundef %74)
  store ptr %75, ptr %15, align 8
  %76 = load ptr, ptr %15, align 8
  %77 = icmp ne ptr %76, null
  %78 = xor i1 %77, true
  %79 = xor i1 %78, true
  %80 = zext i1 %79 to i32
  %81 = sext i32 %80 to i64
  %82 = icmp ne i64 %81, 0
  br i1 %82, label %83, label %93

83:                                               ; preds = %73
  %84 = load ptr, ptr %7, align 8
  %85 = load ptr, ptr %15, align 8
  call void @zend_jit_throw_dec_ref_error(ptr noundef %84, ptr noundef %85)
  br label %86

86:                                               ; preds = %83
  %87 = load ptr, ptr %9, align 8
  store ptr %87, ptr %16, align 8
  %88 = load ptr, ptr %16, align 8
  %89 = getelementptr inbounds %struct._zval_struct, ptr %88, i32 0, i32 0
  store i64 -9223372036854775808, ptr %89, align 8
  %90 = load ptr, ptr %16, align 8
  %91 = getelementptr inbounds %struct._zval_struct, ptr %90, i32 0, i32 1
  store i32 4, ptr %91, align 8
  br label %92

92:                                               ; preds = %86
  br label %93

93:                                               ; preds = %92, %73
  br label %132

94:                                               ; preds = %67, %53
  %95 = load ptr, ptr %7, align 8
  %96 = load ptr, ptr %9, align 8
  %97 = load ptr, ptr getelementptr inbounds (%struct._zend_executor_globals, ptr @executor_globals, i32 0, i32 17), align 8
  %98 = getelementptr inbounds %struct._zend_execute_data, ptr %97, i32 0, i32 3
  %99 = load ptr, ptr %98, align 8
  %100 = getelementptr inbounds %struct.anon.25, ptr %99, i32 0, i32 2
  %101 = load i32, ptr %100, align 4
  %102 = and i32 %101, -2147483648
  %103 = icmp ne i32 %102, 0
  %104 = call zeroext i1 @zend_verify_ref_assignable_zval(ptr noundef %95, ptr noundef %96, i1 noundef zeroext %103)
  %105 = xor i1 %104, true
  %106 = xor i1 %105, true
  %107 = xor i1 %106, true
  %108 = zext i1 %107 to i32
  %109 = sext i32 %108 to i64
  %110 = icmp ne i64 %109, 0
  br i1 %110, label %111, label %130

111:                                              ; preds = %94
  %112 = load ptr, ptr %9, align 8
  call void @zval_ptr_dtor(ptr noundef %112)
  br label %113

113:                                              ; preds = %111
  %114 = load ptr, ptr %9, align 8
  store ptr %114, ptr %17, align 8
  store ptr %10, ptr %18, align 8
  %115 = load ptr, ptr %18, align 8
  %116 = getelementptr inbounds %struct._zval_struct, ptr %115, i32 0, i32 0
  %117 = load ptr, ptr %116, align 8
  store ptr %117, ptr %19, align 8
  %118 = load ptr, ptr %18, align 8
  %119 = getelementptr inbounds %struct._zval_struct, ptr %118, i32 0, i32 1
  %120 = load i32, ptr %119, align 8
  store i32 %120, ptr %20, align 4
  br label %121

121:                                              ; preds = %113
  %122 = load ptr, ptr %19, align 8
  %123 = load ptr, ptr %17, align 8
  %124 = getelementptr inbounds %struct._zval_struct, ptr %123, i32 0, i32 0
  store ptr %122, ptr %124, align 8
  %125 = load i32, ptr %20, align 4
  %126 = load ptr, ptr %17, align 8
  %127 = getelementptr inbounds %struct._zval_struct, ptr %126, i32 0, i32 1
  store i32 %125, ptr %127, align 8
  br label %128

128:                                              ; preds = %121
  br label %129

129:                                              ; preds = %128
  br label %131

130:                                              ; preds = %94
  call void @zval_ptr_dtor(ptr noundef %10)
  br label %131

131:                                              ; preds = %130, %129
  br label %132

132:                                              ; preds = %131, %93
  %133 = load ptr, ptr %8, align 8
  %134 = icmp ne ptr %133, null
  br i1 %134, label %135, label %164

135:                                              ; preds = %132
  br label %136

136:                                              ; preds = %135
  %137 = load ptr, ptr %8, align 8
  store ptr %137, ptr %21, align 8
  %138 = load ptr, ptr %9, align 8
  store ptr %138, ptr %22, align 8
  %139 = load ptr, ptr %22, align 8
  %140 = getelementptr inbounds %struct._zval_struct, ptr %139, i32 0, i32 0
  %141 = load ptr, ptr %140, align 8
  store ptr %141, ptr %23, align 8
  %142 = load ptr, ptr %22, align 8
  %143 = getelementptr inbounds %struct._zval_struct, ptr %142, i32 0, i32 1
  %144 = load i32, ptr %143, align 8
  store i32 %144, ptr %24, align 4
  br label %145

145:                                              ; preds = %136
  %146 = load ptr, ptr %23, align 8
  %147 = load ptr, ptr %21, align 8
  %148 = getelementptr inbounds %struct._zval_struct, ptr %147, i32 0, i32 0
  store ptr %146, ptr %148, align 8
  %149 = load i32, ptr %24, align 4
  %150 = load ptr, ptr %21, align 8
  %151 = getelementptr inbounds %struct._zval_struct, ptr %150, i32 0, i32 1
  store i32 %149, ptr %151, align 8
  br label %152

152:                                              ; preds = %145
  %153 = load i32, ptr %24, align 4
  %154 = and i32 %153, 65280
  %155 = icmp ne i32 %154, 0
  br i1 %155, label %156, label %162

156:                                              ; preds = %152
  %157 = load ptr, ptr %23, align 8
  %158 = getelementptr inbounds %struct._zend_refcounted, ptr %157, i32 0, i32 0
  store ptr %158, ptr %4, align 8
  %159 = load ptr, ptr %4, align 8
  %160 = load i32, ptr %159, align 4
  %161 = add i32 %160, 1
  store i32 %161, ptr %159, align 4
  br label %162

162:                                              ; preds = %156, %152
  br label %163

163:                                              ; preds = %162
  br label %164

164:                                              ; preds = %163, %132
  ret void
}