; Function Attrs: nounwind uwtable
define internal void @zend_jit_pre_dec_typed_ref(ptr noundef %0, ptr noundef writeonly %1) #0 {
  %3 = alloca %struct._zval_struct, align 8
  %4 = getelementptr inbounds i8, ptr %0, i64 8
  %5 = load ptr, ptr %4, align 8
  %6 = getelementptr inbounds i8, ptr %0, i64 16
  %7 = load i32, ptr %6, align 8
  store ptr %5, ptr %3, align 8
  %8 = getelementptr inbounds i8, ptr %3, i64 8
  store i32 %7, ptr %8, align 8
  %9 = and i32 %7, 65280
  %.not = icmp eq i32 %9, 0
  br i1 %.not, label %13, label %10

10:                                               ; preds = %2
  %11 = load i32, ptr %5, align 4
  %12 = add i32 %11, 1
  store i32 %12, ptr %5, align 4
  br label %13

13:                                               ; preds = %2, %10
  %14 = tail call i32 @decrement_function(ptr noundef nonnull %4) #32
  %15 = load i8, ptr %6, align 8
  %16 = icmp eq i8 %15, 5
  %17 = and i32 %7, 255
  %18 = icmp eq i32 %17, 4
  %or.cond = and i1 %16, %18
  br i1 %or.cond, label %19, label %39

19:                                               ; preds = %13
  %20 = getelementptr inbounds i8, ptr %0, i64 24
  %21 = load ptr, ptr %20, align 8
  %.not.i = icmp eq ptr %21, null
  %22 = ptrtoint ptr %21 to i64
  br i1 %.not.i, label %zend_jit_get_prop_not_accepting_double.exit.thread, label %23

23:                                               ; preds = %19
  %24 = and i64 %22, 1
  %.not18.i = icmp eq i64 %24, 0
  br i1 %.not18.i, label %.thread.i, label %26

.thread.i:                                        ; preds = %23
  %25 = getelementptr inbounds i8, ptr %0, i64 32
  br label %.lr.ph.preheader.i

26:                                               ; preds = %23
  %27 = and i64 %22, -2
  %28 = inttoptr i64 %27 to ptr
  %.ptr.i = getelementptr inbounds i8, ptr %28, i64 16
  %29 = load i64, ptr %28, align 8
  %.idx.i = shl nsw i64 %29, 3
  %30 = getelementptr i8, ptr %28, i64 %.idx.i
  %.ptr27.i = getelementptr i8, ptr %30, i64 16
  %31 = icmp sgt i64 %29, 0
  br i1 %31, label %.lr.ph.preheader.i, label %zend_jit_get_prop_not_accepting_double.exit.thread

.lr.ph.preheader.i:                               ; preds = %26, %.thread.i
  %.01626.i = phi ptr [ %25, %.thread.i ], [ %.ptr27.i, %26 ]
  %.01725.i = phi ptr [ %20, %.thread.i ], [ %.ptr.i, %26 ]
  br label %.lr.ph.i

32:                                               ; preds = %.lr.ph.i
  %33 = getelementptr inbounds i8, ptr %.120.i, i64 8
  %34 = icmp ult ptr %33, %.01626.i
  br i1 %34, label %.lr.ph.i, label %zend_jit_get_prop_not_accepting_double.exit.thread

.lr.ph.i:                                         ; preds = %32, %.lr.ph.preheader.i
  %.120.i = phi ptr [ %33, %32 ], [ %.01725.i, %.lr.ph.preheader.i ]
  %35 = load ptr, ptr %.120.i, align 8
  %36 = getelementptr inbounds i8, ptr %35, i64 48
  %37 = load i32, ptr %36, align 8
  %38 = and i32 %37, 32
  %.not19.i = icmp eq i32 %38, 0
  br i1 %.not19.i, label %zend_jit_get_prop_not_accepting_double.exit, label %32

zend_jit_get_prop_not_accepting_double.exit:      ; preds = %.lr.ph.i
  tail call fastcc void @zend_jit_throw_dec_ref_error(ptr noundef nonnull %35)
  store i64 -9223372036854775808, ptr %4, align 8
  store i32 4, ptr %6, align 8
  br label %zend_jit_get_prop_not_accepting_double.exit.thread

39:                                               ; preds = %13
  %40 = load ptr, ptr getelementptr inbounds (%struct._zend_executor_globals, ptr @executor_globals, i64 0, i32 17), align 8
  %41 = getelementptr inbounds i8, ptr %40, i64 24
  %42 = load ptr, ptr %41, align 8
  %43 = getelementptr inbounds i8, ptr %42, i64 4
  %44 = load i32, ptr %43, align 4
  %45 = icmp slt i32 %44, 0
  %46 = tail call zeroext i1 @zend_verify_ref_assignable_zval(ptr noundef nonnull %0, ptr noundef nonnull %4, i1 noundef zeroext %45) #32
  br i1 %46, label %48, label %47

47:                                               ; preds = %39
  tail call void @zval_ptr_dtor(ptr noundef nonnull %4) #32
  store ptr %5, ptr %4, align 8
  store i32 %7, ptr %6, align 8
  br label %zend_jit_get_prop_not_accepting_double.exit.thread

48:                                               ; preds = %39
  call void @zval_ptr_dtor(ptr noundef nonnull %3) #32
  br label %zend_jit_get_prop_not_accepting_double.exit.thread

zend_jit_get_prop_not_accepting_double.exit.thread: ; preds = %32, %26, %19, %47, %48, %zend_jit_get_prop_not_accepting_double.exit
  %.not45 = icmp eq ptr %1, null
  br i1 %.not45, label %57, label %49

49:                                               ; preds = %zend_jit_get_prop_not_accepting_double.exit.thread
  %50 = load ptr, ptr %4, align 8
  %51 = load i32, ptr %6, align 8
  store ptr %50, ptr %1, align 8
  %52 = getelementptr inbounds i8, ptr %1, i64 8
  store i32 %51, ptr %52, align 8
  %53 = and i32 %51, 65280
  %.not46 = icmp eq i32 %53, 0
  br i1 %.not46, label %57, label %54

54:                                               ; preds = %49
  %55 = load i32, ptr %50, align 4
  %56 = add i32 %55, 1
  store i32 %56, ptr %50, align 4
  br label %57

57:                                               ; preds = %54, %49, %zend_jit_get_prop_not_accepting_double.exit.thread
  ret void
}